; Function Attrs: nofree norecurse nosync nounwind memory(read, inaccessiblemem: none) uwtable
define range(i32 0, 2) i32 @Abc_SclObjCheckMarkedFanFans(ptr noundef readonly captures(none) %0) local_unnamed_addr #8 {
  %2 = getelementptr inbounds nuw i8, ptr %0, i64 20
  %3 = load i32, ptr %2, align 4
  %4 = and i32 %3, 32
  %.not = icmp eq i32 %4, 0
  br i1 %.not, label %.preheader, label %.critedge2

.preheader:                                       ; preds = %1
  %5 = getelementptr i8, ptr %0, i64 28
  %.val20 = load i32, ptr %5, align 4, !tbaa !40
  %6 = icmp sgt i32 %.val20, 0
  br i1 %6, label %.lr.ph, label %.critedge.preheader

.lr.ph:                                           ; preds = %.preheader
  %.val21 = load ptr, ptr %0, align 8, !tbaa !3
  %7 = getelementptr i8, ptr %0, i64 32
  %.val22 = load ptr, ptr %7, align 8, !tbaa !43
  %8 = getelementptr i8, ptr %.val21, i64 32
  %.val21.val = load ptr, ptr %8, align 8, !tbaa !34
  %9 = getelementptr i8, ptr %.val21.val, i64 8
  %.val21.val.val = load ptr, ptr %9, align 8, !tbaa !35
  %wide.trip.count = zext nneg i32 %.val20 to i64
  br label %16

10:                                               ; preds = %16
  %indvars.iv.next = add nuw nsw i64 %indvars.iv, 1
  %exitcond.not = icmp eq i64 %indvars.iv.next, %wide.trip.count
  br i1 %exitcond.not, label %.critedge.preheader, label %16, !llvm.loop !137

.critedge.preheader:                              ; preds = %10, %.preheader
  %11 = getelementptr i8, ptr %0, i64 44
  %.val = load i32, ptr %11, align 4, !tbaa !32
  %12 = icmp sgt i32 %.val, 0
  br i1 %12, label %.lr.ph26, label %.critedge2

.lr.ph26:                                         ; preds = %.critedge.preheader
  %.val18 = load ptr, ptr %0, align 8, !tbaa !3
  %13 = getelementptr i8, ptr %0, i64 48
  %.val19 = load ptr, ptr %13, align 8, !tbaa !33
  %14 = getelementptr i8, ptr %.val18, i64 32
  %.val18.val = load ptr, ptr %14, align 8, !tbaa !34
  %15 = getelementptr i8, ptr %.val18.val, i64 8
  %.val18.val.val = load ptr, ptr %15, align 8, !tbaa !35
  %wide.trip.count33 = zext nneg i32 %.val to i64
  br label %25

16:                                               ; preds = %.lr.ph, %10
  %indvars.iv = phi i64 [ 0, %.lr.ph ], [ %indvars.iv.next, %10 ]
  %17 = getelementptr inbounds nuw i32, ptr %.val22, i64 %indvars.iv
  %18 = load i32, ptr %17, align 4, !tbaa !31
  %19 = sext i32 %18 to i64
  %20 = getelementptr inbounds ptr, ptr %.val21.val.val, i64 %19
  %21 = load ptr, ptr %20, align 8, !tbaa !37
  %22 = getelementptr inbounds nuw i8, ptr %21, i64 20
  %23 = load i32, ptr %22, align 4
  %24 = and i32 %23, 32
  %.not17 = icmp eq i32 %24, 0
  br i1 %.not17, label %10, label %.critedge2

.critedge:                                        ; preds = %25
  %indvars.iv.next31 = add nuw nsw i64 %indvars.iv30, 1
  %exitcond34.not = icmp eq i64 %indvars.iv.next31, %wide.trip.count33
  br i1 %exitcond34.not, label %.critedge2, label %25, !llvm.loop !138

25:                                               ; preds = %.lr.ph26, %.critedge
  %indvars.iv30 = phi i64 [ 0, %.lr.ph26 ], [ %indvars.iv.next31, %.critedge ]
  %26 = getelementptr inbounds nuw i32, ptr %.val19, i64 %indvars.iv30
  %27 = load i32, ptr %26, align 4, !tbaa !31
  %28 = sext i32 %27 to i64
  %29 = getelementptr inbounds ptr, ptr %.val18.val.val, i64 %28
  %30 = load ptr, ptr %29, align 8, !tbaa !37
  %31 = getelementptr inbounds nuw i8, ptr %30, i64 20
  %32 = load i32, ptr %31, align 4
  %33 = and i32 %32, 32
  %.not16 = icmp eq i32 %33, 0
  br i1 %.not16, label %.critedge, label %.critedge2

.critedge2:                                       ; preds = %16, %25, %.critedge, %.critedge.preheader, %1
  %.015 = phi i32 [ 1, %1 ], [ 0, %.critedge.preheader ], [ 1, %25 ], [ 0, %.critedge ], [ 1, %16 ]
  ret i32 %.015
}